; Function Attrs: nounwind uwtable
define range(i32 0, 2) i32 @BN_add(ptr noundef %0, ptr noundef %1, ptr noundef %2) local_unnamed_addr #0 {
  %4 = getelementptr inbounds nuw i8, ptr %1, i64 16
  %5 = load i32, ptr %4, align 8, !tbaa !3
  %6 = getelementptr inbounds nuw i8, ptr %2, i64 16
  %7 = load i32, ptr %6, align 8, !tbaa !3
  %8 = icmp eq i32 %5, %7
  br i1 %8, label %9, label %43

9:                                                ; preds = %3
  %10 = getelementptr inbounds nuw i8, ptr %1, i64 8
  %11 = load i32, ptr %10, align 8, !tbaa !10
  %12 = getelementptr inbounds nuw i8, ptr %2, i64 8
  %13 = load i32, ptr %12, align 8, !tbaa !10
  %14 = icmp slt i32 %11, %13
  %spec.select.i = select i1 %14, ptr %1, ptr %2
  %spec.select44.i = select i1 %14, ptr %2, ptr %1
  %15 = getelementptr inbounds nuw i8, ptr %spec.select44.i, i64 8
  %16 = load i32, ptr %15, align 8, !tbaa !10
  %17 = getelementptr inbounds nuw i8, ptr %spec.select.i, i64 8
  %18 = load i32, ptr %17, align 8, !tbaa !10
  %19 = add nsw i32 %16, 1
  %20 = tail call ptr @bn_wexpand(ptr noundef %0, i32 noundef %19) #2
  %21 = icmp eq ptr %20, null
  br i1 %21, label %BN_uadd.exit, label %22

22:                                               ; preds = %9
  %23 = sub nsw i32 %16, %18
  %24 = getelementptr inbounds nuw i8, ptr %0, i64 8
  store i32 %16, ptr %24, align 8, !tbaa !10
  %25 = load ptr, ptr %spec.select44.i, align 8, !tbaa !11
  %26 = load ptr, ptr %spec.select.i, align 8, !tbaa !11
  %27 = load ptr, ptr %0, align 8, !tbaa !11
  %28 = tail call i64 @bn_add_words(ptr noundef %27, ptr noundef %25, ptr noundef %26, i32 noundef %18) #2
  %29 = sext i32 %18 to i64
  %30 = getelementptr inbounds i64, ptr %27, i64 %29
  %.not45.i = icmp eq i32 %23, 0
  br i1 %.not45.i, label %._crit_edge.i, label %.lr.ph.preheader.i

.lr.ph.preheader.i:                               ; preds = %22
  %31 = getelementptr inbounds i64, ptr %25, i64 %29
  br label %.lr.ph.i

.lr.ph.i:                                         ; preds = %.lr.ph.i, %.lr.ph.preheader.i
  %.04049.i = phi i64 [ %39, %.lr.ph.i ], [ %28, %.lr.ph.preheader.i ]
  %.04148.i = phi ptr [ %36, %.lr.ph.i ], [ %30, %.lr.ph.preheader.i ]
  %.04247.i = phi i32 [ %32, %.lr.ph.i ], [ %23, %.lr.ph.preheader.i ]
  %.04346.i = phi ptr [ %33, %.lr.ph.i ], [ %31, %.lr.ph.preheader.i ]
  %32 = add nsw i32 %.04247.i, -1
  %33 = getelementptr inbounds nuw i8, ptr %.04346.i, i64 8
  %34 = load i64, ptr %.04346.i, align 8, !tbaa !12
  %35 = add i64 %34, %.04049.i
  %36 = getelementptr inbounds nuw i8, ptr %.04148.i, i64 8
  store i64 %35, ptr %.04148.i, align 8, !tbaa !12
  %37 = icmp eq i64 %35, 0
  %38 = and i64 %.04049.i, 1
  %39 = select i1 %37, i64 %38, i64 0
  %.not.i = icmp eq i32 %32, 0
  br i1 %.not.i, label %._crit_edge.i, label %.lr.ph.i, !llvm.loop !14

._crit_edge.i:                                    ; preds = %.lr.ph.i, %22
  %.041.lcssa.i = phi ptr [ %30, %22 ], [ %36, %.lr.ph.i ]
  %.040.lcssa.i = phi i64 [ %28, %22 ], [ %39, %.lr.ph.i ]
  store i64 %.040.lcssa.i, ptr %.041.lcssa.i, align 8, !tbaa !12
  %40 = load i32, ptr %24, align 8, !tbaa !10
  %41 = trunc i64 %.040.lcssa.i to i32
  %42 = add i32 %40, %41
  store i32 %42, ptr %24, align 8, !tbaa !10
  br label %BN_uadd.exit

43:                                               ; preds = %3
  %44 = tail call i32 @BN_ucmp(ptr noundef nonnull %1, ptr noundef nonnull %2) #2
  %45 = icmp sgt i32 %44, 0
  br i1 %45, label %46, label %49

46:                                               ; preds = %43
  %47 = load i32, ptr %4, align 8, !tbaa !3
  %48 = tail call i32 @BN_usub(ptr noundef %0, ptr noundef nonnull %1, ptr noundef nonnull %2)
  br label %BN_uadd.exit

49:                                               ; preds = %43
  %50 = icmp slt i32 %44, 0
  br i1 %50, label %51, label %54

51:                                               ; preds = %49
  %52 = load i32, ptr %6, align 8, !tbaa !3
  %53 = tail call i32 @BN_usub(ptr noundef %0, ptr noundef nonnull %2, ptr noundef nonnull %1)
  br label %BN_uadd.exit

54:                                               ; preds = %49
  tail call void @BN_zero_ex(ptr noundef %0) #2
  br label %BN_uadd.exit

BN_uadd.exit:                                     ; preds = %._crit_edge.i, %9, %46, %54, %51
  %.021 = phi i32 [ %47, %46 ], [ %52, %51 ], [ 0, %54 ], [ %5, %9 ], [ %5, %._crit_edge.i ]
  %.0 = phi i32 [ %48, %46 ], [ %53, %51 ], [ 1, %54 ], [ 0, %9 ], [ 1, %._crit_edge.i ]
  %55 = getelementptr inbounds nuw i8, ptr %0, i64 16
  store i32 %.021, ptr %55, align 8, !tbaa !3
  ret i32 %.0
}